; Function Attrs: nounwind uwtable
define internal ptr @typealias_parameters(ptr noundef readonly captures(none) %0, ptr readnone captures(none) %1) #0 {
  %3 = getelementptr inbounds nuw i8, ptr %0, i64 24
  %4 = load ptr, ptr %3, align 8, !tbaa !134
  %5 = icmp eq ptr %4, null
  br i1 %5, label %6, label %8

6:                                                ; preds = %2
  %7 = tail call ptr @PyTuple_New(i64 noundef 0) #8
  br label %10

8:                                                ; preds = %2
  %9 = tail call fastcc ptr @unpack_typevartuples(ptr noundef nonnull %4)
  br label %10

10:                                               ; preds = %8, %6
  %.0 = phi ptr [ %7, %6 ], [ %9, %8 ]
  ret ptr %.0
}